; Function Attrs: nounwind uwtable
define range(i32 0, 2) i32 @mz_zip_reader_extract_file_to_mem_no_alloc(ptr noundef captures(address_is_null) %0, ptr noundef captures(address_is_null) %1, ptr noundef %2, i64 noundef %3, i32 noundef %4, ptr noundef %5, i64 noundef %6) local_unnamed_addr #8 {
  %8 = alloca i32, align 4
  call void @llvm.lifetime.start.p0(i64 4, ptr nonnull %8) #34
  %9 = call i32 @mz_zip_reader_locate_file_v2(ptr noundef %0, ptr noundef %1, ptr noundef null, i32 noundef %4, ptr noundef nonnull %8)
  %.not = icmp eq i32 %9, 0
  br i1 %.not, label %13, label %10

10:                                               ; preds = %7
  %11 = load i32, ptr %8, align 4
  %12 = call fastcc i32 @mz_zip_reader_extract_to_mem_no_alloc1(ptr noundef %0, i32 noundef %11, ptr noundef %2, i64 noundef %3, i32 noundef %4, ptr noundef %5, i64 noundef %6, ptr noundef null)
  br label %13

13:                                               ; preds = %7, %10
  %.0 = phi i32 [ %12, %10 ], [ 0, %7 ]
  call void @llvm.lifetime.end.p0(i64 4, ptr nonnull %8) #34
  ret i32 %.0
}